target datalayout = "e-m:e-p270:32:32-p271:32:32-p272:64:64-i64:64-i128:128-f80:128-n8:16:32:64-S128"
target triple = "x86_64-pc-linux-gnu"

%"class.clang::SourceLocation" = type { i32 }
%"class.llvm::PointerIntPair.337" = type { %"struct.llvm::detail::PunnedPointer.338" }
%"struct.llvm::detail::PunnedPointer.338" = type { [8 x i8] }
%"class.llvm::PointerUnion" = type { %"class.llvm::pointer_union_detail::PointerUnionMembers" }
%"class.llvm::pointer_union_detail::PointerUnionMembers" = type { %"class.llvm::pointer_union_detail::PointerUnionMembers.339" }
%"class.llvm::pointer_union_detail::PointerUnionMembers.339" = type { %"class.llvm::pointer_union_detail::PointerUnionMembers.340" }
%"class.llvm::pointer_union_detail::PointerUnionMembers.340" = type { %"class.llvm::PointerIntPair.341" }
%"class.llvm::PointerIntPair.341" = type { %"struct.llvm::detail::PunnedPointer.342" }
%"struct.llvm::detail::PunnedPointer.342" = type { [8 x i8] }
%"class.clang::SourceRange" = type { %"class.clang::SourceLocation", %"class.clang::SourceLocation" }
%"class.clang::Decl" = type <{ ptr, %"class.llvm::PointerIntPair.337", %"class.llvm::PointerUnion", %"class.clang::SourceLocation", i32, i8, [7 x i8] }>
%"class.llvm::SmallVectorBase" = type { ptr, i32, i32 }
%"class.clang::AttributeCommonInfo" = type { ptr, ptr, %"class.clang::SourceRange", %"class.clang::SourceLocation", i32 }
%"class.clang::Attr" = type <{ %"class.clang::AttributeCommonInfo", i16, i8, [5 x i8] }>
%"class.clang::specific_attr_iterator.559" = type { ptr }

; Function Attrs: mustprogress nounwind uwtable
define linkonce_odr hidden noundef i32 @_ZNK5clang4Attr7getKindEv(ptr noundef nonnull align 8 dereferenceable(35) %0) #0 comdat align 2 {
  %2 = alloca ptr, align 8
  store ptr %0, ptr %2, align 8
  %3 = load ptr, ptr %2, align 8
  %4 = getelementptr inbounds nuw %"class.clang::Attr", ptr %3, i32 0, i32 1
  %5 = load i16, ptr %4, align 8
  %6 = zext i16 %5 to i32
  ret i32 %6
}

; Function Attrs: mustprogress nounwind uwtable
define linkonce_odr hidden noundef zeroext i1 @_ZN5clang28ObjCRequiresPropertyDefsAttr7classofEPKNS_4AttrE(ptr noundef %0) #0 comdat align 2 {
  %2 = alloca ptr, align 8
  store ptr %0, ptr %2, align 8
  %3 = load ptr, ptr %2, align 8
  %4 = call noundef i32 @_ZNK5clang4Attr7getKindEv(ptr noundef nonnull align 8 dereferenceable(35) %3)
  %5 = icmp eq i32 %4, 291
  ret i1 %5
}

; Function Attrs: mustprogress nounwind uwtable
define linkonce_odr hidden noundef zeroext i1 @_ZN4llvm8isa_implIN5clang28ObjCRequiresPropertyDefsAttrENS1_4AttrEvE4doitERKS3_(ptr noundef nonnull align 8 dereferenceable(35) %0) #0 comdat align 2 {
  %2 = alloca ptr, align 8
  store ptr %0, ptr %2, align 8
  %3 = load ptr, ptr %2, align 8
  %4 = call noundef zeroext i1 @_ZN5clang28ObjCRequiresPropertyDefsAttr7classofEPKNS_4AttrE(ptr noundef %3)
  ret i1 %4
}

; Function Attrs: mustprogress nounwind uwtable
define linkonce_odr hidden noundef zeroext i1 @_ZN4llvm11isa_impl_clIN5clang28ObjCRequiresPropertyDefsAttrEPKNS1_4AttrEE4doitES5_(ptr noundef %0) #0 comdat align 2 {
  %2 = alloca ptr, align 8
  store ptr %0, ptr %2, align 8
  %3 = load ptr, ptr %2, align 8
  %4 = call noundef zeroext i1 @_ZN4llvm8isa_implIN5clang28ObjCRequiresPropertyDefsAttrENS1_4AttrEvE4doitERKS3_(ptr noundef nonnull align 8 dereferenceable(35) %3)
  ret i1 %4
}

; Function Attrs: mustprogress nounwind uwtable
define linkonce_odr hidden noundef nonnull align 8 dereferenceable(8) ptr @_ZN4llvm13simplify_typeIPKN5clang4AttrEE18getSimplifiedValueERS4_(ptr noundef nonnull align 8 dereferenceable(8) %0) #0 comdat align 2 {
  %2 = alloca ptr, align 8
  store ptr %0, ptr %2, align 8
  %3 = load ptr, ptr %2, align 8
  ret ptr %3
}

; Function Attrs: mustprogress nounwind uwtable
define linkonce_odr hidden noundef zeroext i1 @_ZN4llvm13isa_impl_wrapIN5clang28ObjCRequiresPropertyDefsAttrEPKNS1_4AttrES5_E4doitERKS5_(ptr noundef nonnull align 8 dereferenceable(8) %0) #0 comdat align 2 {
  %2 = alloca ptr, align 8
  store ptr %0, ptr %2, align 8
  %3 = load ptr, ptr %2, align 8
  %4 = load ptr, ptr %3, align 8
  %5 = call noundef zeroext i1 @_ZN4llvm11isa_impl_clIN5clang28ObjCRequiresPropertyDefsAttrEPKNS1_4AttrEE4doitES5_(ptr noundef %4)
  ret i1 %5
}

; Function Attrs: mustprogress nounwind uwtable
define linkonce_odr hidden noundef ptr @_ZN4llvm13simplify_typeIKPKN5clang4AttrEE18getSimplifiedValueERS5_(ptr noundef nonnull align 8 dereferenceable(8) %0) #0 comdat align 2 {
  %2 = alloca ptr, align 8
  store ptr %0, ptr %2, align 8
  %3 = load ptr, ptr %2, align 8
  %4 = call noundef nonnull align 8 dereferenceable(8) ptr @_ZN4llvm13simplify_typeIPKN5clang4AttrEE18getSimplifiedValueERS4_(ptr noundef nonnull align 8 dereferenceable(8) %3)
  %5 = load ptr, ptr %4, align 8
  ret ptr %5
}

; Function Attrs: mustprogress nounwind uwtable
define linkonce_odr hidden noundef zeroext i1 @_ZN4llvm13isa_impl_wrapIN5clang28ObjCRequiresPropertyDefsAttrEKPKNS1_4AttrES5_E4doitERS6_(ptr noundef nonnull align 8 dereferenceable(8) %0) #0 comdat align 2 {
  %2 = alloca ptr, align 8
  %3 = alloca ptr, align 8
  store ptr %0, ptr %2, align 8
  %4 = load ptr, ptr %2, align 8
  %5 = call noundef ptr @_ZN4llvm13simplify_typeIKPKN5clang4AttrEE18getSimplifiedValueERS5_(ptr noundef nonnull align 8 dereferenceable(8) %4)
  store ptr %5, ptr %3, align 8
  %6 = call noundef zeroext i1 @_ZN4llvm13isa_impl_wrapIN5clang28ObjCRequiresPropertyDefsAttrEPKNS1_4AttrES5_E4doitERKS5_(ptr noundef nonnull align 8 dereferenceable(8) %3)
  ret i1 %6
}

; Function Attrs: mustprogress nounwind uwtable
define linkonce_odr hidden noundef nonnull align 8 dereferenceable(8) ptr @_ZN4llvm13simplify_typeIPN5clang4AttrEE18getSimplifiedValueERS3_(ptr noundef nonnull align 8 dereferenceable(8) %0) #0 comdat align 2 {
  %2 = alloca ptr, align 8
  store ptr %0, ptr %2, align 8
  %3 = load ptr, ptr %2, align 8
  ret ptr %3
}

; Function Attrs: mustprogress nounwind uwtable
define linkonce_odr hidden noundef zeroext i1 @_ZN4llvm14CastIsPossibleIN5clang28ObjCRequiresPropertyDefsAttrEPKNS1_4AttrEvE10isPossibleERKS5_(ptr noundef nonnull align 8 dereferenceable(8) %0) #0 comdat align 2 {
  %2 = alloca ptr, align 8
  store ptr %0, ptr %2, align 8
  %3 = load ptr, ptr %2, align 8
  %4 = call noundef zeroext i1 @_ZN4llvm13isa_impl_wrapIN5clang28ObjCRequiresPropertyDefsAttrEKPKNS1_4AttrES5_E4doitERS6_(ptr noundef nonnull align 8 dereferenceable(8) %3)
  ret i1 %4
}

; Function Attrs: mustprogress nounwind uwtable
define linkonce_odr hidden noundef ptr @_ZN4llvm13simplify_typeIKPN5clang4AttrEE18getSimplifiedValueERS4_(ptr noundef nonnull align 8 dereferenceable(8) %0) #0 comdat align 2 {
  %2 = alloca ptr, align 8
  store ptr %0, ptr %2, align 8
  %3 = load ptr, ptr %2, align 8
  %4 = call noundef nonnull align 8 dereferenceable(8) ptr @_ZN4llvm13simplify_typeIPN5clang4AttrEE18getSimplifiedValueERS3_(ptr noundef nonnull align 8 dereferenceable(8) %3)
  %5 = load ptr, ptr %4, align 8
  ret ptr %5
}

; Function Attrs: mustprogress nounwind uwtable
define linkonce_odr hidden noundef zeroext i1 @_ZN4llvm8CastInfoIN5clang28ObjCRequiresPropertyDefsAttrEKPNS1_4AttrEvE10isPossibleERS5_(ptr noundef nonnull align 8 dereferenceable(8) %0) #0 comdat align 2 {
  %2 = alloca ptr, align 8
  %3 = alloca ptr, align 8
  store ptr %0, ptr %2, align 8
  %4 = load ptr, ptr %2, align 8
  %5 = call noundef ptr @_ZN4llvm13simplify_typeIKPN5clang4AttrEE18getSimplifiedValueERS4_(ptr noundef nonnull align 8 dereferenceable(8) %4)
  store ptr %5, ptr %3, align 8
  %6 = call noundef zeroext i1 @_ZN4llvm14CastIsPossibleIN5clang28ObjCRequiresPropertyDefsAttrEPKNS1_4AttrEvE10isPossibleERKS5_(ptr noundef nonnull align 8 dereferenceable(8) %3)
  ret i1 %6
}

; Function Attrs: mustprogress nounwind uwtable
define linkonce_odr hidden noundef zeroext i1 @_ZN4llvm3isaIN5clang28ObjCRequiresPropertyDefsAttrEPNS1_4AttrEEEbRKT0_(ptr noundef nonnull align 8 dereferenceable(8) %0) #0 comdat {
  %2 = alloca ptr, align 8
  store ptr %0, ptr %2, align 8
  %3 = load ptr, ptr %2, align 8
  %4 = call noundef zeroext i1 @_ZN4llvm8CastInfoIN5clang28ObjCRequiresPropertyDefsAttrEKPNS1_4AttrEvE10isPossibleERS5_(ptr noundef nonnull align 8 dereferenceable(8) %3)
  ret i1 %4
}

; Function Attrs: mustprogress nounwind uwtable
define linkonce_odr hidden void @_ZNK5clang22specific_attr_iteratorINS_28ObjCRequiresPropertyDefsAttrEN4llvm11SmallVectorIPNS_4AttrELj4EEEE13AdvanceToNextEPKS5_(ptr noundef nonnull align 8 dereferenceable(8) %0, ptr noundef %1) #0 comdat align 2 {
  %3 = alloca ptr, align 8
  %4 = alloca ptr, align 8
  store ptr %0, ptr %3, align 8
  store ptr %1, ptr %4, align 8
  %5 = load ptr, ptr %3, align 8
  br label %6

6:                                                ; preds = %18, %2
  %7 = getelementptr inbounds nuw %"class.clang::specific_attr_iterator.559", ptr %5, i32 0, i32 0
  %8 = load ptr, ptr %7, align 8
  %9 = load ptr, ptr %4, align 8
  %10 = icmp ne ptr %8, %9
  br i1 %10, label %11, label %16

11:                                               ; preds = %6
  %12 = getelementptr inbounds nuw %"class.clang::specific_attr_iterator.559", ptr %5, i32 0, i32 0
  %13 = load ptr, ptr %12, align 8
  %14 = call noundef zeroext i1 @_ZN4llvm3isaIN5clang28ObjCRequiresPropertyDefsAttrEPNS1_4AttrEEEbRKT0_(ptr noundef nonnull align 8 dereferenceable(8) %13)
  %15 = xor i1 %14, true
  br label %16

16:                                               ; preds = %11, %6
  %17 = phi i1 [ false, %6 ], [ %15, %11 ]
  br i1 %17, label %18, label %22

18:                                               ; preds = %16
  %19 = getelementptr inbounds nuw %"class.clang::specific_attr_iterator.559", ptr %5, i32 0, i32 0
  %20 = load ptr, ptr %19, align 8
  %21 = getelementptr inbounds ptr, ptr %20, i32 1
  store ptr %21, ptr %19, align 8
  br label %6, !llvm.loop !46

22:                                               ; preds = %16
  ret void
}

; Function Attrs: mustprogress nounwind uwtable
define linkonce_odr hidden noundef zeroext i1 @_ZN5clangeqENS_22specific_attr_iteratorINS_28ObjCRequiresPropertyDefsAttrEN4llvm11SmallVectorIPNS_4AttrELj4EEEEES7_(ptr %0, ptr %1) #0 comdat {
  %3 = alloca %"class.clang::specific_attr_iterator.559", align 8
  %4 = alloca %"class.clang::specific_attr_iterator.559", align 8
  %5 = getelementptr inbounds nuw %"class.clang::specific_attr_iterator.559", ptr %3, i32 0, i32 0
  store ptr %0, ptr %5, align 8
  %6 = getelementptr inbounds nuw %"class.clang::specific_attr_iterator.559", ptr %4, i32 0, i32 0
  store ptr %1, ptr %6, align 8
  %7 = getelementptr inbounds nuw %"class.clang::specific_attr_iterator.559", ptr %3, i32 0, i32 0
  %8 = load ptr, ptr %7, align 8
  %9 = getelementptr inbounds nuw %"class.clang::specific_attr_iterator.559", ptr %4, i32 0, i32 0
  %10 = load ptr, ptr %9, align 8
  %11 = icmp ult ptr %8, %10
  br i1 %11, label %12, label %15

12:                                               ; preds = %2
  %13 = getelementptr inbounds nuw %"class.clang::specific_attr_iterator.559", ptr %4, i32 0, i32 0
  %14 = load ptr, ptr %13, align 8
  call void @_ZNK5clang22specific_attr_iteratorINS_28ObjCRequiresPropertyDefsAttrEN4llvm11SmallVectorIPNS_4AttrELj4EEEE13AdvanceToNextEPKS5_(ptr noundef nonnull align 8 dereferenceable(8) %3, ptr noundef %14)
  br label %18

15:                                               ; preds = %2
  %16 = getelementptr inbounds nuw %"class.clang::specific_attr_iterator.559", ptr %3, i32 0, i32 0
  %17 = load ptr, ptr %16, align 8
  call void @_ZNK5clang22specific_attr_iteratorINS_28ObjCRequiresPropertyDefsAttrEN4llvm11SmallVectorIPNS_4AttrELj4EEEE13AdvanceToNextEPKS5_(ptr noundef nonnull align 8 dereferenceable(8) %4, ptr noundef %17)
  br label %18

18:                                               ; preds = %15, %12
  %19 = getelementptr inbounds nuw %"class.clang::specific_attr_iterator.559", ptr %3, i32 0, i32 0
  %20 = load ptr, ptr %19, align 8
  %21 = getelementptr inbounds nuw %"class.clang::specific_attr_iterator.559", ptr %4, i32 0, i32 0
  %22 = load ptr, ptr %21, align 8
  %23 = icmp eq ptr %20, %22
  ret i1 %23
}

; Function Attrs: mustprogress nounwind uwtable
define linkonce_odr hidden noundef ptr @_ZNK4llvm25SmallVectorTemplateCommonIPN5clang4AttrEvE3endEv(ptr noundef nonnull align 8 dereferenceable(16) %0) #0 comdat align 2 {
  %2 = alloca ptr, align 8
  store ptr %0, ptr %2, align 8
  %3 = load ptr, ptr %2, align 8
  %4 = call noundef ptr @_ZNK4llvm25SmallVectorTemplateCommonIPN5clang4AttrEvE5beginEv(ptr noundef nonnull align 8 dereferenceable(16) %3)
  %5 = call noundef i64 @_ZNK4llvm15SmallVectorBaseIjE4sizeEv(ptr noundef nonnull align 8 dereferenceable(16) %3)
  %6 = getelementptr inbounds ptr, ptr %4, i64 %5
  ret ptr %6
}

; Function Attrs: mustprogress nounwind uwtable
define linkonce_odr hidden void @_ZN5clang22specific_attr_iteratorINS_28ObjCRequiresPropertyDefsAttrEN4llvm11SmallVectorIPNS_4AttrELj4EEEEC2EPKS5_(ptr noundef nonnull align 8 dereferenceable(8) %0, ptr noundef %1) unnamed_addr #0 comdat align 2 {
  %3 = alloca ptr, align 8
  %4 = alloca ptr, align 8
  store ptr %0, ptr %3, align 8
  store ptr %1, ptr %4, align 8
  %5 = load ptr, ptr %3, align 8
  %6 = getelementptr inbounds nuw %"class.clang::specific_attr_iterator.559", ptr %5, i32 0, i32 0
  %7 = load ptr, ptr %4, align 8
  store ptr %7, ptr %6, align 8
  ret void
}

; Function Attrs: mustprogress nounwind uwtable
define linkonce_odr hidden noundef ptr @_ZNK4llvm25SmallVectorTemplateCommonIPN5clang4AttrEvE5beginEv(ptr noundef nonnull align 8 dereferenceable(16) %0) #0 comdat align 2 {
  %2 = alloca ptr, align 8
  store ptr %0, ptr %2, align 8
  %3 = load ptr, ptr %2, align 8
  %4 = getelementptr inbounds nuw %"class.llvm::SmallVectorBase", ptr %3, i32 0, i32 0
  %5 = load ptr, ptr %4, align 8
  ret ptr %5
}

; Function Attrs: mustprogress nounwind uwtable
define linkonce_odr hidden noundef zeroext i1 @_ZN5clangneENS_22specific_attr_iteratorINS_28ObjCRequiresPropertyDefsAttrEN4llvm11SmallVectorIPNS_4AttrELj4EEEEES7_(ptr %0, ptr %1) #0 comdat {
  %3 = alloca %"class.clang::specific_attr_iterator.559", align 8
  %4 = alloca %"class.clang::specific_attr_iterator.559", align 8
  %5 = alloca %"class.clang::specific_attr_iterator.559", align 8
  %6 = alloca %"class.clang::specific_attr_iterator.559", align 8
  %7 = getelementptr inbounds nuw %"class.clang::specific_attr_iterator.559", ptr %3, i32 0, i32 0
  store ptr %0, ptr %7, align 8
  %8 = getelementptr inbounds nuw %"class.clang::specific_attr_iterator.559", ptr %4, i32 0, i32 0
  store ptr %1, ptr %8, align 8
  call void @llvm.memcpy.p0.p0.i64(ptr align 8 %5, ptr align 8 %3, i64 8, i1 false)
  call void @llvm.memcpy.p0.p0.i64(ptr align 8 %6, ptr align 8 %4, i64 8, i1 false)
  %9 = getelementptr inbounds nuw %"class.clang::specific_attr_iterator.559", ptr %5, i32 0, i32 0
  %10 = load ptr, ptr %9, align 8
  %11 = getelementptr inbounds nuw %"class.clang::specific_attr_iterator.559", ptr %6, i32 0, i32 0
  %12 = load ptr, ptr %11, align 8
  %13 = call noundef zeroext i1 @_ZN5clangeqENS_22specific_attr_iteratorINS_28ObjCRequiresPropertyDefsAttrEN4llvm11SmallVectorIPNS_4AttrELj4EEEEES7_(ptr %10, ptr %12)
  %14 = xor i1 %13, true
  ret i1 %14
}

; Function Attrs: mustprogress nounwind uwtable
define linkonce_odr hidden ptr @_ZN5clang17specific_attr_endINS_28ObjCRequiresPropertyDefsAttrEN4llvm11SmallVectorIPNS_4AttrELj4EEEEENS_22specific_attr_iteratorIT_T0_EERKS9_(ptr noundef nonnull align 8 dereferenceable(48) %0) #0 comdat {
  %2 = alloca %"class.clang::specific_attr_iterator.559", align 8
  %3 = alloca ptr, align 8
  store ptr %0, ptr %3, align 8
  %4 = load ptr, ptr %3, align 8
  %5 = call noundef ptr @_ZNK4llvm25SmallVectorTemplateCommonIPN5clang4AttrEvE3endEv(ptr noundef nonnull align 8 dereferenceable(16) %4)
  call void @_ZN5clang22specific_attr_iteratorINS_28ObjCRequiresPropertyDefsAttrEN4llvm11SmallVectorIPNS_4AttrELj4EEEEC2EPKS5_(ptr noundef nonnull align 8 dereferenceable(8) %2, ptr noundef %5)
  %6 = getelementptr inbounds nuw %"class.clang::specific_attr_iterator.559", ptr %2, i32 0, i32 0
  %7 = load ptr, ptr %6, align 8
  ret ptr %7
}

; Function Attrs: mustprogress nounwind uwtable
define linkonce_odr hidden ptr @_ZN5clang19specific_attr_beginINS_28ObjCRequiresPropertyDefsAttrEN4llvm11SmallVectorIPNS_4AttrELj4EEEEENS_22specific_attr_iteratorIT_T0_EERKS9_(ptr noundef nonnull align 8 dereferenceable(48) %0) #0 comdat {
  %2 = alloca %"class.clang::specific_attr_iterator.559", align 8
  %3 = alloca ptr, align 8
  store ptr %0, ptr %3, align 8
  %4 = load ptr, ptr %3, align 8
  %5 = call noundef ptr @_ZNK4llvm25SmallVectorTemplateCommonIPN5clang4AttrEvE5beginEv(ptr noundef nonnull align 8 dereferenceable(16) %4)
  call void @_ZN5clang22specific_attr_iteratorINS_28ObjCRequiresPropertyDefsAttrEN4llvm11SmallVectorIPNS_4AttrELj4EEEEC2EPKS5_(ptr noundef nonnull align 8 dereferenceable(8) %2, ptr noundef %5)
  %6 = getelementptr inbounds nuw %"class.clang::specific_attr_iterator.559", ptr %2, i32 0, i32 0
  %7 = load ptr, ptr %6, align 8
  ret ptr %7
}

; Function Attrs: mustprogress nounwind uwtable
define linkonce_odr hidden noundef zeroext i1 @_ZN5clang15hasSpecificAttrINS_28ObjCRequiresPropertyDefsAttrEN4llvm11SmallVectorIPNS_4AttrELj4EEEEEbRKT0_(ptr noundef nonnull align 8 dereferenceable(48) %0) #0 comdat {
  %2 = alloca ptr, align 8
  %3 = alloca %"class.clang::specific_attr_iterator.559", align 8
  %4 = alloca %"class.clang::specific_attr_iterator.559", align 8
  store ptr %0, ptr %2, align 8
  %5 = load ptr, ptr %2, align 8
  %6 = call ptr @_ZN5clang19specific_attr_beginINS_28ObjCRequiresPropertyDefsAttrEN4llvm11SmallVectorIPNS_4AttrELj4EEEEENS_22specific_attr_iteratorIT_T0_EERKS9_(ptr noundef nonnull align 8 dereferenceable(48) %5)
  %7 = getelementptr inbounds nuw %"class.clang::specific_attr_iterator.559", ptr %3, i32 0, i32 0
  store ptr %6, ptr %7, align 8
  %8 = load ptr, ptr %2, align 8
  %9 = call ptr @_ZN5clang17specific_attr_endINS_28ObjCRequiresPropertyDefsAttrEN4llvm11SmallVectorIPNS_4AttrELj4EEEEENS_22specific_attr_iteratorIT_T0_EERKS9_(ptr noundef nonnull align 8 dereferenceable(48) %8)
  %10 = getelementptr inbounds nuw %"class.clang::specific_attr_iterator.559", ptr %4, i32 0, i32 0
  store ptr %9, ptr %10, align 8
  %11 = getelementptr inbounds nuw %"class.clang::specific_attr_iterator.559", ptr %3, i32 0, i32 0
  %12 = load ptr, ptr %11, align 8
  %13 = getelementptr inbounds nuw %"class.clang::specific_attr_iterator.559", ptr %4, i32 0, i32 0
  %14 = load ptr, ptr %13, align 8
  %15 = call noundef zeroext i1 @_ZN5clangneENS_22specific_attr_iteratorINS_28ObjCRequiresPropertyDefsAttrEN4llvm11SmallVectorIPNS_4AttrELj4EEEEES7_(ptr %12, ptr %14)
  ret i1 %15
}

; Function Attrs: mustprogress nounwind uwtable
define linkonce_odr hidden noundef zeroext i1 @_ZNK5clang4Decl8hasAttrsEv(ptr noundef nonnull align 8 dereferenceable(33) %0) #0 comdat align 2 {
  %2 = alloca ptr, align 8
  store ptr %0, ptr %2, align 8
  %3 = load ptr, ptr %2, align 8
  %4 = getelementptr inbounds nuw %"class.clang::Decl", ptr %3, i32 0, i32 4
  %5 = load i32, ptr %4, align 4
  %6 = lshr i32 %5, 8
  %7 = and i32 %6, 1
  %8 = icmp ne i32 %7, 0
  ret i1 %8
}

; Function Attrs: mustprogress nounwind uwtable
define linkonce_odr hidden noundef zeroext i1 @_ZNK5clang4Decl7hasAttrINS_28ObjCRequiresPropertyDefsAttrEEEbv(ptr noundef nonnull align 8 dereferenceable(33) %0) #0 comdat align 2 {
  %2 = alloca ptr, align 8
  store ptr %0, ptr %2, align 8
  %3 = load ptr, ptr %2, align 8
  %4 = call noundef zeroext i1 @_ZNK5clang4Decl8hasAttrsEv(ptr noundef nonnull align 8 dereferenceable(33) %3)
  br i1 %4, label %5, label %8

5:                                                ; preds = %1
  %6 = call noundef nonnull align 8 dereferenceable(48) ptr @_ZNK5clang4Decl8getAttrsEv(ptr noundef nonnull align 8 dereferenceable(33) %3)
  %7 = call noundef zeroext i1 @_ZN5clang15hasSpecificAttrINS_28ObjCRequiresPropertyDefsAttrEN4llvm11SmallVectorIPNS_4AttrELj4EEEEEbRKT0_(ptr noundef nonnull align 8 dereferenceable(48) %6)
  br label %8

8:                                                ; preds = %5, %1
  %9 = phi i1 [ false, %1 ], [ %7, %5 ]
  ret i1 %9
}

; Function Attrs: mustprogress nounwind uwtable
define dso_local noundef ptr @_ZNK5clang17ObjCInterfaceDecl26isObjCRequiresPropertyDefsEv(ptr noundef nonnull align 8 dereferenceable(128) %0) #0 align 2 {
  %2 = alloca ptr, align 8
  %3 = alloca ptr, align 8
  %4 = alloca ptr, align 8
  store ptr %0, ptr %3, align 8
  %5 = load ptr, ptr %3, align 8
  store ptr %5, ptr %4, align 8
  br label %6

6:                                                ; preds = %14, %1
  %7 = load ptr, ptr %4, align 8
  %8 = icmp ne ptr %7, null
  br i1 %8, label %9, label %17

9:                                                ; preds = %6
  %10 = load ptr, ptr %4, align 8
  %11 = call noundef zeroext i1 @_ZNK5clang4Decl7hasAttrINS_28ObjCRequiresPropertyDefsAttrEEEbv(ptr noundef nonnull align 8 dereferenceable(33) %10)
  br i1 %11, label %12, label %14

12:                                               ; preds = %9
  %13 = load ptr, ptr %4, align 8
  store ptr %13, ptr %2, align 8
  br label %18

14:                                               ; preds = %9
  %15 = load ptr, ptr %4, align 8
  %16 = call noundef ptr @_ZNK5clang17ObjCInterfaceDecl13getSuperClassEv(ptr noundef nonnull align 8 dereferenceable(128) %15)
  store ptr %16, ptr %4, align 8
  br label %6, !llvm.loop !13

17:                                               ; preds = %6
  store ptr null, ptr %2, align 8
  br label %18

18:                                               ; preds = %17, %12
  %19 = load ptr, ptr %2, align 8
  ret ptr %19
}