; Function Attrs: mustprogress nounwind uwtable
define dso_local noundef ptr @_ZNK5clang17ObjCInterfaceDecl26isObjCRequiresPropertyDefsEv(ptr noundef nonnull align 8 dereferenceable(128) %0) local_unnamed_addr #0 align 2 {
  br label %2

2:                                                ; preds = %1, %_ZNK5clang4Decl7hasAttrINS_28ObjCRequiresPropertyDefsAttrEEEbv.exit.thread
  %.015 = phi ptr [ %0, %1 ], [ %25, %_ZNK5clang4Decl7hasAttrINS_28ObjCRequiresPropertyDefsAttrEEEbv.exit.thread ]
  %3 = getelementptr inbounds nuw i8, ptr %.015, i64 28
  %4 = load i32, ptr %3, align 4
  %5 = and i32 %4, 256
  %.not.i = icmp eq i32 %5, 0
  br i1 %.not.i, label %_ZNK5clang4Decl7hasAttrINS_28ObjCRequiresPropertyDefsAttrEEEbv.exit.thread, label %6

6:                                                ; preds = %2
  %7 = tail call noundef nonnull align 8 dereferenceable(48) ptr @_ZNK5clang4Decl8getAttrsEv(ptr noundef nonnull align 8 dereferenceable(33) %.015) #23
  %8 = load ptr, ptr %7, align 8
  %9 = tail call noundef i64 @_ZNK4llvm15SmallVectorBaseIjE4sizeEv(ptr noundef nonnull align 8 dereferenceable(16) %7) #23
  %10 = getelementptr inbounds ptr, ptr %8, i64 %9
  %11 = icmp sgt i64 %9, 0
  br i1 %11, label %.lr.ph.i.i.i.i.i, label %18

.lr.ph.i.i.i.i.i:                                 ; preds = %6, %16
  %.sroa.07.1.i.i.i.i = phi ptr [ %17, %16 ], [ %8, %6 ]
  %12 = load ptr, ptr %.sroa.07.1.i.i.i.i, align 8
  %13 = getelementptr inbounds nuw i8, ptr %12, i64 32
  %14 = load i16, ptr %13, align 8
  %15 = icmp eq i16 %14, 291
  br i1 %15, label %_ZNK5clang4Decl7hasAttrINS_28ObjCRequiresPropertyDefsAttrEEEbv.exit, label %16

16:                                               ; preds = %.lr.ph.i.i.i.i.i
  %17 = getelementptr inbounds i8, ptr %.sroa.07.1.i.i.i.i, i64 8
  %.not.i.i.i.i.i = icmp eq ptr %17, %10
  br i1 %.not.i.i.i.i.i, label %_ZNK5clang4Decl7hasAttrINS_28ObjCRequiresPropertyDefsAttrEEEbv.exit.thread, label %.lr.ph.i.i.i.i.i, !llvm.loop !28

18:                                               ; preds = %6
  %.not2.i3.i.i.i.i = icmp eq i64 %9, 0
  br i1 %.not2.i3.i.i.i.i, label %_ZNK5clang4Decl7hasAttrINS_28ObjCRequiresPropertyDefsAttrEEEbv.exit.thread, label %.lr.ph.i4.i.i.i.i

.lr.ph.i4.i.i.i.i:                                ; preds = %18, %23
  %.sroa.0.1.i.i.i.i = phi ptr [ %24, %23 ], [ %10, %18 ]
  %19 = load ptr, ptr %.sroa.0.1.i.i.i.i, align 8
  %20 = getelementptr inbounds nuw i8, ptr %19, i64 32
  %21 = load i16, ptr %20, align 8
  %22 = icmp eq i16 %21, 291
  br i1 %22, label %_ZNK5clang4Decl7hasAttrINS_28ObjCRequiresPropertyDefsAttrEEEbv.exit, label %23

23:                                               ; preds = %.lr.ph.i4.i.i.i.i
  %24 = getelementptr inbounds i8, ptr %.sroa.0.1.i.i.i.i, i64 8
  %.not.i5.i.i.i.i = icmp eq ptr %24, %8
  br i1 %.not.i5.i.i.i.i, label %_ZNK5clang4Decl7hasAttrINS_28ObjCRequiresPropertyDefsAttrEEEbv.exit.thread, label %.lr.ph.i4.i.i.i.i, !llvm.loop !28

_ZNK5clang4Decl7hasAttrINS_28ObjCRequiresPropertyDefsAttrEEEbv.exit: ; preds = %.lr.ph.i4.i.i.i.i, %.lr.ph.i.i.i.i.i
  %.sroa.07.0.i.i.i.i = phi ptr [ %.sroa.07.1.i.i.i.i, %.lr.ph.i.i.i.i.i ], [ %8, %.lr.ph.i4.i.i.i.i ]
  %.sroa.0.0.i.i.i.i = phi ptr [ %10, %.lr.ph.i.i.i.i.i ], [ %.sroa.0.1.i.i.i.i, %.lr.ph.i4.i.i.i.i ]
  %.not10 = icmp eq ptr %.sroa.07.0.i.i.i.i, %.sroa.0.0.i.i.i.i
  br i1 %.not10, label %_ZNK5clang4Decl7hasAttrINS_28ObjCRequiresPropertyDefsAttrEEEbv.exit.thread, label %26

_ZNK5clang4Decl7hasAttrINS_28ObjCRequiresPropertyDefsAttrEEEbv.exit.thread: ; preds = %23, %16, %18, %2, %_ZNK5clang4Decl7hasAttrINS_28ObjCRequiresPropertyDefsAttrEEEbv.exit
  %25 = tail call noundef ptr @_ZNK5clang17ObjCInterfaceDecl13getSuperClassEv(ptr noundef nonnull align 8 dereferenceable(128) %.015)
  %.not = icmp eq ptr %25, null
  br i1 %.not, label %26, label %2, !llvm.loop !29

26:                                               ; preds = %_ZNK5clang4Decl7hasAttrINS_28ObjCRequiresPropertyDefsAttrEEEbv.exit.thread, %_ZNK5clang4Decl7hasAttrINS_28ObjCRequiresPropertyDefsAttrEEEbv.exit
  %.0.lcssa = phi ptr [ null, %_ZNK5clang4Decl7hasAttrINS_28ObjCRequiresPropertyDefsAttrEEEbv.exit.thread ], [ %.015, %_ZNK5clang4Decl7hasAttrINS_28ObjCRequiresPropertyDefsAttrEEEbv.exit ]
  ret ptr %.0.lcssa
}